; ModuleID = '56/1744.c'
source_filename = "56/1744.c"
target datalayout = "e-m:e-p270:32:32-p271:32:32-p272:64:64-i64:64-f80:128-n8:16:32:64-S128"
target triple = "x86_64-pc-linux-gnu"

@.str = private unnamed_addr constant [3 x i8] c"%d\00", align 1

; Function Attrs: noinline nounwind uwtable
define dso_local i32 @main() #0 {
  %1 = alloca i32, align 4
  %2 = alloca i32, align 4
  %3 = alloca [6 x i32], align 16
  %4 = alloca i32, align 4
  %5 = alloca i32, align 4
  store i32 0, i32* %1, align 4
  %6 = call i32 (i8*, ...) @__isoc99_scanf(i8* getelementptr inbounds ([3 x i8], [3 x i8]* @.str, i64 0, i64 0), i32* %2)
  store i32 1, i32* %4, align 4
  br label %7

7:                                                ; preds = %38, %0
  %8 = load i32, i32* %4, align 4
  %9 = icmp sle i32 %8, 10
  br i1 %9, label %10, label %41

10:                                               ; preds = %7
  %11 = load i32, i32* %2, align 4
  %12 = sitofp i32 %11 to double
  %13 = load i32, i32* %4, align 4
  %14 = sub nsw i32 %13, 1
  %15 = sitofp i32 %14 to double
  %16 = call double @pow(double 1.000000e+01, double %15) #3
  %17 = fdiv double %12, %16
  %18 = fptosi double %17 to i32
  %19 = load i32, i32* %2, align 4
  %20 = sitofp i32 %19 to double
  %21 = load i32, i32* %4, align 4
  %22 = sitofp i32 %21 to double
  %23 = call double @pow(double 1.000000e+01, double %22) #3
  %24 = fdiv double %20, %23
  %25 = fptosi double %24 to i32
  %26 = mul nsw i32 %25, 10
  %27 = sub nsw i32 %18, %26
  %28 = load i32, i32* %4, align 4
  %29 = sext i32 %28 to i64
  %30 = getelementptr inbounds [6 x i32], [6 x i32]* %3, i64 0, i64 %29
  store i32 %27, i32* %30, align 4
  %31 = load i32, i32* %4, align 4
  %32 = sext i32 %31 to i64
  %33 = getelementptr inbounds [6 x i32], [6 x i32]* %3, i64 0, i64 %32
  %34 = load i32, i32* %33, align 4
  %35 = icmp eq i32 %34, 0
  br i1 %35, label %36, label %37

36:                                               ; preds = %10
  br label %41

37:                                               ; preds = %10
  br label %38

38:                                               ; preds = %37
  %39 = load i32, i32* %4, align 4
  %40 = add nsw i32 %39, 1
  store i32 %40, i32* %4, align 4
  br label %7

41:                                               ; preds = %36, %7
  store i32 1, i32* %5, align 4
  br label %42

42:                                               ; preds = %52, %41
  %43 = load i32, i32* %5, align 4
  %44 = load i32, i32* %4, align 4
  %45 = icmp slt i32 %43, %44
  br i1 %45, label %46, label %55

46:                                               ; preds = %42
  %47 = load i32, i32* %5, align 4
  %48 = sext i32 %47 to i64
  %49 = getelementptr inbounds [6 x i32], [6 x i32]* %3, i64 0, i64 %48
  %50 = load i32, i32* %49, align 4
  %51 = call i32 (i8*, ...) @printf(i8* getelementptr inbounds ([3 x i8], [3 x i8]* @.str, i64 0, i64 0), i32 %50)
  br label %52

52:                                               ; preds = %46
  %53 = load i32, i32* %5, align 4
  %54 = add nsw i32 %53, 1
  store i32 %54, i32* %5, align 4
  br label %42

55:                                               ; preds = %42
  ret i32 0
}

declare dso_local i32 @__isoc99_scanf(i8*, ...) #1

; Function Attrs: nounwind
declare dso_local double @pow(double, double) #2

declare dso_local i32 @printf(i8*, ...) #1


!llvm.module.flags = !{!0}
!llvm.ident = !{!1}

!0 = !{i32 1, !"wchar_size", i32 4}
!1 = !{!"clang version 10.0.0-4ubuntu1 "}
